; Function Attrs: mustprogress nofree norecurse nosync nounwind willreturn memory(read, inaccessiblemem: none) uwtable
define dso_local nonnull ptr @context_filename(ptr nocapture noundef readonly %0) local_unnamed_addr #3 {
  %2 = getelementptr inbounds i8, ptr %0, i64 8
  %3 = load ptr, ptr %2, align 8
  %.not = icmp eq ptr %3, null
  br i1 %.not, label %10, label %4

4:                                                ; preds = %1
  %5 = getelementptr inbounds i8, ptr %3, i64 8
  %6 = load ptr, ptr %5, align 8
  %.not10 = icmp eq ptr %6, null
  br i1 %.not10, label %10, label %7

7:                                                ; preds = %4
  %8 = getelementptr inbounds i8, ptr %6, i64 40
  %9 = load ptr, ptr %8, align 8
  %.not11 = icmp eq ptr %9, null
  %spec.select = select i1 %.not11, ptr @.str.5, ptr %9
  br label %10

10:                                               ; preds = %7, %4, %1
  %.0 = phi ptr [ @.str.4, %1 ], [ @.str.5, %4 ], [ %spec.select, %7 ]
  ret ptr %.0
}